; Function Attrs: mustprogress uwtable
define internal fastcc noalias noundef ptr @_ZN7testing8internal16SuiteApiResolverIN4absl18debugging_internal12_GLOBAL__N_122DecodeRustPunycodeTestEE22GetTearDownCaseOrSuiteEPKci(i32 noundef %0) unnamed_addr #4 align 2 personality ptr @__gxx_personality_v0 {
  %2 = alloca %"class.testing::internal::GTestLog", align 4
  %3 = tail call noundef zeroext i1 @_ZN7testing8internal6IsTrueEb(i1 noundef zeroext true)
  br i1 %3, label %13, label %4

4:                                                ; preds = %1
  call void @llvm.lifetime.start.p0(i64 4, ptr nonnull %2) #24
  call void @_ZN7testing8internal8GTestLogC1ENS0_16GTestLogSeverityEPKci(ptr noundef nonnull align 4 dereferenceable(4) %2, i32 noundef 3, ptr noundef nonnull @.str.221, i32 noundef 534)
  %5 = invoke noundef nonnull align 8 dereferenceable(8) ptr @_ZSt16__ostream_insertIcSt11char_traitsIcEERSt13basic_ostreamIT_T0_ES6_PKS3_l(ptr noundef nonnull align 8 dereferenceable(8) @_ZSt4cerr, ptr noundef nonnull @.str.222, i64 noundef 50)
          to label %_ZStlsISt11char_traitsIcEERSt13basic_ostreamIcT_ES5_PKc.exit unwind label %11

_ZStlsISt11char_traitsIcEERSt13basic_ostreamIcT_ES5_PKc.exit: ; preds = %4
  %6 = invoke noundef nonnull align 8 dereferenceable(8) ptr @_ZSt16__ostream_insertIcSt11char_traitsIcEERSt13basic_ostreamIT_T0_ES6_PKS3_l(ptr noundef nonnull align 8 dereferenceable(8) @_ZSt4cerr, ptr noundef nonnull @.str.225, i64 noundef 111)
          to label %_ZStlsISt11char_traitsIcEERSt13basic_ostreamIcT_ES5_PKc.exit9 unwind label %11

_ZStlsISt11char_traitsIcEERSt13basic_ostreamIcT_ES5_PKc.exit9: ; preds = %_ZStlsISt11char_traitsIcEERSt13basic_ostreamIcT_ES5_PKc.exit
  %7 = invoke noundef nonnull align 8 dereferenceable(8) ptr @_ZSt16__ostream_insertIcSt11char_traitsIcEERSt13basic_ostreamIT_T0_ES6_PKS3_l(ptr noundef nonnull align 8 dereferenceable(8) @_ZSt4cerr, ptr noundef nonnull @.str.3, i64 noundef 151)
          to label %_ZStlsISt11char_traitsIcEERSt13basic_ostreamIcT_ES5_PKc.exit10 unwind label %11

_ZStlsISt11char_traitsIcEERSt13basic_ostreamIcT_ES5_PKc.exit10: ; preds = %_ZStlsISt11char_traitsIcEERSt13basic_ostreamIcT_ES5_PKc.exit9
  %8 = invoke noundef nonnull align 8 dereferenceable(8) ptr @_ZSt16__ostream_insertIcSt11char_traitsIcEERSt13basic_ostreamIT_T0_ES6_PKS3_l(ptr noundef nonnull align 8 dereferenceable(8) @_ZSt4cerr, ptr noundef nonnull @.str.224, i64 noundef 1)
          to label %_ZStlsISt11char_traitsIcEERSt13basic_ostreamIcT_ES5_PKc.exit11 unwind label %11

_ZStlsISt11char_traitsIcEERSt13basic_ostreamIcT_ES5_PKc.exit11: ; preds = %_ZStlsISt11char_traitsIcEERSt13basic_ostreamIcT_ES5_PKc.exit10
  %9 = invoke noundef nonnull align 8 dereferenceable(8) ptr @_ZNSolsEi(ptr noundef nonnull align 8 dereferenceable(8) @_ZSt4cerr, i32 noundef %0)
          to label %10 unwind label %11

10:                                               ; preds = %_ZStlsISt11char_traitsIcEERSt13basic_ostreamIcT_ES5_PKc.exit11
  call void @_ZN7testing8internal8GTestLogD1Ev(ptr noundef nonnull align 4 dereferenceable(4) %2) #24
  call void @llvm.lifetime.end.p0(i64 4, ptr nonnull %2) #24
  br label %13

11:                                               ; preds = %_ZStlsISt11char_traitsIcEERSt13basic_ostreamIcT_ES5_PKc.exit10, %_ZStlsISt11char_traitsIcEERSt13basic_ostreamIcT_ES5_PKc.exit9, %_ZStlsISt11char_traitsIcEERSt13basic_ostreamIcT_ES5_PKc.exit, %4, %_ZStlsISt11char_traitsIcEERSt13basic_ostreamIcT_ES5_PKc.exit11
  %12 = landingpad { ptr, i32 }
          cleanup
  call void @_ZN7testing8internal8GTestLogD1Ev(ptr noundef nonnull align 4 dereferenceable(4) %2) #24
  call void @llvm.lifetime.end.p0(i64 4, ptr nonnull %2) #24
  resume { ptr, i32 } %12

13:                                               ; preds = %1, %10
  ret ptr null
}